; ModuleID = '20/602.c'
source_filename = "20/602.c"
target datalayout = "e-m:e-p270:32:32-p271:32:32-p272:64:64-i64:64-f80:128-n8:16:32:64-S128"
target triple = "x86_64-pc-linux-gnu"

@.str = private unnamed_addr constant [6 x i8] c"%s %s\00", align 1
@.str.1 = private unnamed_addr constant [3 x i8] c"%c\00", align 1
@.str.2 = private unnamed_addr constant [2 x i8] c"\0A\00", align 1

; Function Attrs: noinline nounwind uwtable
define dso_local void @main() #0 {
  %1 = alloca i32, align 4
  %2 = alloca i32, align 4
  %3 = alloca i32, align 4
  %4 = alloca i32, align 4
  %5 = alloca i32, align 4
  %6 = alloca [30 x [10 x i8]], align 16
  %7 = alloca [30 x [3 x i8]], align 16
  %8 = alloca [30 x [13 x i8]], align 16
  %9 = alloca [30 x i8*], align 16
  %10 = alloca i8*, align 8
  %11 = alloca i8*, align 8
  %12 = alloca i8*, align 8
  store i32 0, i32* %1, align 4
  %13 = bitcast [30 x [10 x i8]]* %6 to i8*
  call void @llvm.memset.p0i8.i64(i8* align 16 %13, i8 0, i64 300, i1 false)
  %14 = bitcast [30 x [3 x i8]]* %7 to i8*
  call void @llvm.memset.p0i8.i64(i8* align 16 %14, i8 0, i64 90, i1 false)
  %15 = bitcast [30 x [13 x i8]]* %8 to i8*
  call void @llvm.memset.p0i8.i64(i8* align 16 %15, i8 0, i64 390, i1 false)
  br label %16

16:                                               ; preds = %27, %0
  %17 = load i32, i32* %1, align 4
  %18 = sext i32 %17 to i64
  %19 = getelementptr inbounds [30 x [10 x i8]], [30 x [10 x i8]]* %6, i64 0, i64 %18
  %20 = getelementptr inbounds [10 x i8], [10 x i8]* %19, i64 0, i64 0
  %21 = load i32, i32* %1, align 4
  %22 = sext i32 %21 to i64
  %23 = getelementptr inbounds [30 x [3 x i8]], [30 x [3 x i8]]* %7, i64 0, i64 %22
  %24 = getelementptr inbounds [3 x i8], [3 x i8]* %23, i64 0, i64 0
  %25 = call i32 (i8*, ...) @__isoc99_scanf(i8* getelementptr inbounds ([6 x i8], [6 x i8]* @.str, i64 0, i64 0), i8* %20, i8* %24)
  %26 = icmp ne i32 %25, -1
  br i1 %26, label %27, label %30

27:                                               ; preds = %16
  %28 = load i32, i32* %1, align 4
  %29 = add nsw i32 %28, 1
  store i32 %29, i32* %1, align 4
  br label %16

30:                                               ; preds = %16
  %31 = load i32, i32* %1, align 4
  store i32 %31, i32* %3, align 4
  %32 = load i32, i32* %1, align 4
  %33 = sext i32 %32 to i64
  %34 = getelementptr inbounds [30 x [10 x i8]], [30 x [10 x i8]]* %6, i64 0, i64 %33
  %35 = getelementptr inbounds [10 x i8], [10 x i8]* %34, i64 0, i64 0
  %36 = getelementptr inbounds [30 x i8*], [30 x i8*]* %9, i64 0, i64 0
  store i8* %35, i8** %36, align 16
  store i32 0, i32* %1, align 4
  br label %37

37:                                               ; preds = %188, %30
  %38 = load i32, i32* %1, align 4
  %39 = load i32, i32* %3, align 4
  %40 = icmp slt i32 %38, %39
  br i1 %40, label %41, label %191

41:                                               ; preds = %37
  store i32 1, i32* %5, align 4
  %42 = getelementptr inbounds [30 x i8*], [30 x i8*]* %9, i64 0, i64 0
  %43 = load i8*, i8** %42, align 16
  %44 = load i8, i8* %43, align 1
  %45 = sext i8 %44 to i32
  store i32 %45, i32* %4, align 4
  store i32 0, i32* %2, align 4
  br label %46

46:                                               ; preds = %81, %41
  %47 = load i32, i32* %1, align 4
  %48 = sext i32 %47 to i64
  %49 = getelementptr inbounds [30 x [10 x i8]], [30 x [10 x i8]]* %6, i64 0, i64 %48
  %50 = load i32, i32* %2, align 4
  %51 = sext i32 %50 to i64
  %52 = getelementptr inbounds [10 x i8], [10 x i8]* %49, i64 0, i64 %51
  %53 = load i8, i8* %52, align 1
  %54 = sext i8 %53 to i32
  %55 = icmp ne i32 %54, 0
  br i1 %55, label %56, label %84

56:                                               ; preds = %46
  %57 = load i32, i32* %1, align 4
  %58 = sext i32 %57 to i64
  %59 = getelementptr inbounds [30 x [10 x i8]], [30 x [10 x i8]]* %6, i64 0, i64 %58
  %60 = getelementptr inbounds [10 x i8], [10 x i8]* %59, i64 0, i64 0
  %61 = load i32, i32* %2, align 4
  %62 = sext i32 %61 to i64
  %63 = getelementptr inbounds i8, i8* %60, i64 %62
  %64 = load i8, i8* %63, align 1
  %65 = sext i8 %64 to i32
  %66 = load i32, i32* %4, align 4
  %67 = icmp sgt i32 %65, %66
  br i1 %67, label %68, label %80

68:                                               ; preds = %56
  %69 = load i32, i32* %1, align 4
  %70 = sext i32 %69 to i64
  %71 = getelementptr inbounds [30 x [10 x i8]], [30 x [10 x i8]]* %6, i64 0, i64 %70
  %72 = getelementptr inbounds [10 x i8], [10 x i8]* %71, i64 0, i64 0
  %73 = load i32, i32* %2, align 4
  %74 = sext i32 %73 to i64
  %75 = getelementptr inbounds i8, i8* %72, i64 %74
  %76 = load i8, i8* %75, align 1
  %77 = sext i8 %76 to i32
  store i32 %77, i32* %4, align 4
  %78 = load i32, i32* %2, align 4
  %79 = add nsw i32 %78, 1
  store i32 %79, i32* %5, align 4
  br label %80

80:                                               ; preds = %68, %56
  br label %81

81:                                               ; preds = %80
  %82 = load i32, i32* %2, align 4
  %83 = add nsw i32 %82, 1
  store i32 %83, i32* %2, align 4
  br label %46

84:                                               ; preds = %46
  %85 = load i32, i32* %1, align 4
  %86 = sext i32 %85 to i64
  %87 = getelementptr inbounds [30 x [10 x i8]], [30 x [10 x i8]]* %6, i64 0, i64 %86
  %88 = getelementptr inbounds [10 x i8], [10 x i8]* %87, i64 0, i64 0
  store i8* %88, i8** %10, align 8
  %89 = load i32, i32* %1, align 4
  %90 = sext i32 %89 to i64
  %91 = getelementptr inbounds [30 x [3 x i8]], [30 x [3 x i8]]* %7, i64 0, i64 %90
  %92 = getelementptr inbounds [3 x i8], [3 x i8]* %91, i64 0, i64 0
  store i8* %92, i8** %11, align 8
  %93 = load i32, i32* %1, align 4
  %94 = sext i32 %93 to i64
  %95 = getelementptr inbounds [30 x [13 x i8]], [30 x [13 x i8]]* %8, i64 0, i64 %94
  %96 = getelementptr inbounds [13 x i8], [13 x i8]* %95, i64 0, i64 0
  store i8* %96, i8** %12, align 8
  store i32 0, i32* %2, align 4
  br label %97

97:                                               ; preds = %111, %84
  %98 = load i32, i32* %2, align 4
  %99 = load i32, i32* %5, align 4
  %100 = icmp slt i32 %98, %99
  br i1 %100, label %101, label %114

101:                                              ; preds = %97
  %102 = load i8*, i8** %10, align 8
  %103 = load i32, i32* %2, align 4
  %104 = sext i32 %103 to i64
  %105 = getelementptr inbounds i8, i8* %102, i64 %104
  %106 = load i8, i8* %105, align 1
  %107 = load i8*, i8** %12, align 8
  %108 = load i32, i32* %2, align 4
  %109 = sext i32 %108 to i64
  %110 = getelementptr inbounds i8, i8* %107, i64 %109
  store i8 %106, i8* %110, align 1
  br label %111

111:                                              ; preds = %101
  %112 = load i32, i32* %2, align 4
  %113 = add nsw i32 %112, 1
  store i32 %113, i32* %2, align 4
  br label %97

114:                                              ; preds = %97
  %115 = load i32, i32* %5, align 4
  store i32 %115, i32* %2, align 4
  br label %116

116:                                              ; preds = %135, %114
  %117 = load i32, i32* %2, align 4
  %118 = load i32, i32* %5, align 4
  %119 = add nsw i32 %118, 3
  %120 = icmp slt i32 %117, %119
  br i1 %120, label %121, label %138

121:                                              ; preds = %116
  %122 = load i8*, i8** %11, align 8
  %123 = load i32, i32* %2, align 4
  %124 = sext i32 %123 to i64
  %125 = getelementptr inbounds i8, i8* %122, i64 %124
  %126 = load i32, i32* %5, align 4
  %127 = sext i32 %126 to i64
  %128 = sub i64 0, %127
  %129 = getelementptr inbounds i8, i8* %125, i64 %128
  %130 = load i8, i8* %129, align 1
  %131 = load i8*, i8** %12, align 8
  %132 = load i32, i32* %2, align 4
  %133 = sext i32 %132 to i64
  %134 = getelementptr inbounds i8, i8* %131, i64 %133
  store i8 %130, i8* %134, align 1
  br label %135

135:                                              ; preds = %121
  %136 = load i32, i32* %2, align 4
  %137 = add nsw i32 %136, 1
  store i32 %137, i32* %2, align 4
  br label %116

138:                                              ; preds = %116
  %139 = load i32, i32* %5, align 4
  store i32 %139, i32* %2, align 4
  br label %140

140:                                              ; preds = %161, %138
  %141 = load i32, i32* %1, align 4
  %142 = sext i32 %141 to i64
  %143 = getelementptr inbounds [30 x [10 x i8]], [30 x [10 x i8]]* %6, i64 0, i64 %142
  %144 = load i32, i32* %2, align 4
  %145 = sext i32 %144 to i64
  %146 = getelementptr inbounds [10 x i8], [10 x i8]* %143, i64 0, i64 %145
  %147 = load i8, i8* %146, align 1
  %148 = sext i8 %147 to i32
  %149 = icmp ne i32 %148, 0
  br i1 %149, label %150, label %164

150:                                              ; preds = %140
  %151 = load i8*, i8** %10, align 8
  %152 = load i32, i32* %2, align 4
  %153 = sext i32 %152 to i64
  %154 = getelementptr inbounds i8, i8* %151, i64 %153
  %155 = load i8, i8* %154, align 1
  %156 = load i8*, i8** %12, align 8
  %157 = getelementptr inbounds i8, i8* %156, i64 3
  %158 = load i32, i32* %2, align 4
  %159 = sext i32 %158 to i64
  %160 = getelementptr inbounds i8, i8* %157, i64 %159
  store i8 %155, i8* %160, align 1
  br label %161

161:                                              ; preds = %150
  %162 = load i32, i32* %2, align 4
  %163 = add nsw i32 %162, 1
  store i32 %163, i32* %2, align 4
  br label %140

164:                                              ; preds = %140
  store i32 0, i32* %2, align 4
  br label %165

165:                                              ; preds = %183, %164
  %166 = load i32, i32* %1, align 4
  %167 = sext i32 %166 to i64
  %168 = getelementptr inbounds [30 x [13 x i8]], [30 x [13 x i8]]* %8, i64 0, i64 %167
  %169 = load i32, i32* %2, align 4
  %170 = sext i32 %169 to i64
  %171 = getelementptr inbounds [13 x i8], [13 x i8]* %168, i64 0, i64 %170
  %172 = load i8, i8* %171, align 1
  %173 = sext i8 %172 to i32
  %174 = icmp ne i32 %173, 0
  br i1 %174, label %175, label %186

175:                                              ; preds = %165
  %176 = load i8*, i8** %12, align 8
  %177 = load i32, i32* %2, align 4
  %178 = sext i32 %177 to i64
  %179 = getelementptr inbounds i8, i8* %176, i64 %178
  %180 = load i8, i8* %179, align 1
  %181 = sext i8 %180 to i32
  %182 = call i32 (i8*, ...) @printf(i8* getelementptr inbounds ([3 x i8], [3 x i8]* @.str.1, i64 0, i64 0), i32 %181)
  br label %183

183:                                              ; preds = %175
  %184 = load i32, i32* %2, align 4
  %185 = add nsw i32 %184, 1
  store i32 %185, i32* %2, align 4
  br label %165

186:                                              ; preds = %165
  %187 = call i32 (i8*, ...) @printf(i8* getelementptr inbounds ([2 x i8], [2 x i8]* @.str.2, i64 0, i64 0))
  br label %188

188:                                              ; preds = %186
  %189 = load i32, i32* %1, align 4
  %190 = add nsw i32 %189, 1
  store i32 %190, i32* %1, align 4
  br label %37

191:                                              ; preds = %37
  ret void
}

; Function Attrs: argmemonly nounwind willreturn
declare void @llvm.memset.p0i8.i64(i8* nocapture writeonly, i8, i64, i1 immarg) #1

declare dso_local i32 @__isoc99_scanf(i8*, ...) #2

declare dso_local i32 @printf(i8*, ...) #2


!llvm.module.flags = !{!0}
!llvm.ident = !{!1}

!0 = !{i32 1, !"wchar_size", i32 4}
!1 = !{!"clang version 10.0.0-4ubuntu1 "}
